; Function Attrs: mustprogress uwtable
define void @_ZNK3gmx24MttkPropagatorConnection18propagatorCallbackEl(ptr noundef nonnull readonly align 8 captures(none) dereferenceable(120) %0, i64 noundef %1) local_unnamed_addr #1 align 2 {
  %3 = alloca i64, align 8
  %4 = getelementptr inbounds nuw i8, ptr %0, i64 96
  %5 = load ptr, ptr %4, align 8, !tbaa !66
  %6 = getelementptr inbounds nuw i8, ptr %0, i64 104
  %7 = load ptr, ptr %6, align 8, !tbaa !66
  %.not8 = icmp eq ptr %5, %7
  br i1 %.not8, label %._crit_edge, label %.lr.ph

._crit_edge:                                      ; preds = %_ZNKSt8functionIFvlEEclEl.exit, %2
  ret void

.lr.ph:                                           ; preds = %2, %_ZNKSt8functionIFvlEEclEl.exit
  %.sroa.05.09 = phi ptr [ %17, %_ZNKSt8functionIFvlEEclEl.exit ], [ %5, %2 ]
  %8 = load i32, ptr %.sroa.05.09, align 4, !tbaa !68
  %9 = sext i32 %8 to i64
  %10 = add nsw i64 %1, %9
  call void @llvm.lifetime.start.p0(i64 8, ptr nonnull %3)
  store i64 %10, ptr %3, align 8, !tbaa !53
  %11 = getelementptr inbounds nuw i8, ptr %.sroa.05.09, i64 24
  %12 = load ptr, ptr %11, align 8, !tbaa !57
  %.not.i.i = icmp eq ptr %12, null
  br i1 %.not.i.i, label %13, label %_ZNKSt8functionIFvlEEclEl.exit

13:                                               ; preds = %.lr.ph
  call void @_ZSt25__throw_bad_function_callv() #34
  unreachable

_ZNKSt8functionIFvlEEclEl.exit:                   ; preds = %.lr.ph
  %14 = getelementptr inbounds nuw i8, ptr %.sroa.05.09, i64 8
  %15 = getelementptr inbounds nuw i8, ptr %.sroa.05.09, i64 32
  %16 = load ptr, ptr %15, align 8, !tbaa !69
  call void %16(ptr noundef nonnull align 8 dereferenceable(32) %14, ptr noundef nonnull align 8 dereferenceable(8) %3)
  call void @llvm.lifetime.end.p0(i64 8, ptr nonnull %3)
  %17 = getelementptr inbounds nuw i8, ptr %.sroa.05.09, i64 40
  %.not = icmp eq ptr %17, %7
  br i1 %.not, label %._crit_edge, label %.lr.ph
}